target datalayout = "e-m:e-p270:32:32-p271:32:32-p272:64:64-i64:64-i128:128-f80:128-n8:16:32:64-S128"
target triple = "x86_64-pc-linux-gnu"

%struct.cache_ref_iterator = type { %struct.ref_iterator, i64, i64, ptr, ptr, ptr }
%struct.ref_iterator = type { ptr, ptr, ptr, ptr, i32 }

; Function Attrs: nounwind uwtable
define internal i32 @cache_ref_iterator_abort(ptr noundef %0) #0 {
  %2 = alloca ptr, align 8
  %3 = alloca ptr, align 8
  store ptr %0, ptr %2, align 8, !tbaa !52
  call void @llvm.lifetime.start.p0(i64 8, ptr %3) #10
  %4 = load ptr, ptr %2, align 8, !tbaa !52
  store ptr %4, ptr %3, align 8, !tbaa !50
  %5 = load ptr, ptr %3, align 8, !tbaa !50
  %6 = getelementptr inbounds nuw %struct.cache_ref_iterator, ptr %5, i32 0, i32 3
  %7 = load ptr, ptr %6, align 8, !tbaa !65
  call void @free(ptr noundef %7) #10
  %8 = load ptr, ptr %3, align 8, !tbaa !50
  %9 = getelementptr inbounds nuw %struct.cache_ref_iterator, ptr %8, i32 0, i32 4
  %10 = load ptr, ptr %9, align 8, !tbaa !59
  call void @free(ptr noundef %10) #10
  %11 = load ptr, ptr %2, align 8, !tbaa !52
  call void @base_ref_iterator_free(ptr noundef %11)
  call void @llvm.lifetime.end.p0(i64 8, ptr %3) #10
  ret i32 -1
}