; Function Attrs: nounwind uwtable
define internal noundef i32 @cache_ref_iterator_abort(ptr noundef %0) #0 {
  %2 = getelementptr inbounds nuw i8, ptr %0, i64 56
  %3 = load ptr, ptr %2, align 8, !tbaa !46
  tail call void @free(ptr noundef %3) #11
  %4 = getelementptr inbounds nuw i8, ptr %0, i64 64
  %5 = load ptr, ptr %4, align 8, !tbaa !40
  tail call void @free(ptr noundef %5) #11
  tail call void @base_ref_iterator_free(ptr noundef %0) #11
  ret i32 -1
}